; Function Attrs: null_pointer_is_valid sspstrong uwtable
define hidden noundef i32 @parseReverseHello(ptr noundef %0, ptr noundef %1, ptr noundef %2, ptr noundef %3, ptr noundef readnone captures(none) %4) local_unnamed_addr #0 {
  %6 = load i32, ptr @hf_opcua_transport_type, align 4
  %7 = load i32, ptr %3, align 4
  %8 = tail call ptr @proto_tree_add_item(ptr noundef %0, i32 noundef %6, ptr noundef %1, i32 noundef %7, i32 noundef 3, i32 noundef 0)
  %9 = load i32, ptr %3, align 4
  %10 = add i32 %9, 3
  store i32 %10, ptr %3, align 4
  %11 = load i32, ptr @hf_opcua_transport_chunk, align 4
  %12 = tail call ptr @proto_tree_add_item(ptr noundef %0, i32 noundef %11, ptr noundef %1, i32 noundef %10, i32 noundef 1, i32 noundef 0)
  %13 = load i32, ptr %3, align 4
  %14 = add i32 %13, 1
  store i32 %14, ptr %3, align 4
  %15 = load i32, ptr @hf_opcua_transport_size, align 4
  %16 = tail call ptr @proto_tree_add_item(ptr noundef %0, i32 noundef %15, ptr noundef %1, i32 noundef %14, i32 noundef 4, i32 noundef -2147483648)
  %17 = load i32, ptr %3, align 4
  %18 = add i32 %17, 4
  store i32 %18, ptr %3, align 4
  %19 = load i32, ptr @hf_opcua_transport_suri, align 4
  %20 = tail call ptr @parseString(ptr noundef %0, ptr noundef %1, ptr noundef %2, ptr noundef %3, i32 noundef %19)
  %21 = load i32, ptr @hf_opcua_transport_endpoint, align 4
  %22 = tail call ptr @parseString(ptr noundef %0, ptr noundef %1, ptr noundef %2, ptr noundef %3, i32 noundef %21)
  ret i32 -1
}